target datalayout = "e-m:e-p270:32:32-p271:32:32-p272:64:64-i64:64-i128:128-f80:128-n8:16:32:64-S128"
target triple = "x86_64-pc-linux-gnu"

%struct.TupleTableSlotOps = type { i64, ptr, ptr, ptr, ptr, ptr, ptr, ptr, ptr, ptr, ptr, ptr, ptr }
%struct.AggState = type { %struct.ScanState, ptr, i32, i32, i32, i32, ptr, i32, i32, ptr, ptr, ptr, ptr, ptr, ptr, ptr, ptr, i8, i8, i32, i32, ptr, ptr, ptr, i32, i8, i32, ptr, ptr, ptr, ptr, ptr, ptr, i8, i32, ptr, ptr, ptr, ptr, ptr, ptr, i8, i8, i64, i64, i32, double, i64, i64, i64, i32, ptr, ptr, ptr, ptr }
%struct.ScanState = type { %struct.PlanState, ptr, ptr, ptr }
%struct.PlanState = type { i32, ptr, ptr, ptr, ptr, ptr, ptr, ptr, ptr, ptr, ptr, ptr, ptr, ptr, ptr, ptr, ptr, ptr, i8, ptr, ptr, ptr, ptr, ptr, i8, i8, i8, i8, i8, i8, i8, i8 }
%struct.TupleTableSlot = type { i32, i16, i16, ptr, ptr, ptr, ptr, ptr, %struct.ItemPointerData, i32 }
%struct.ItemPointerData = type { %struct.BlockIdData, i16 }
%struct.BlockIdData = type { i16, i16 }
%struct.TupleDescData = type { i32, i32, i32, i32, ptr, [0 x %struct.CompactAttribute] }
%struct.CompactAttribute = type { i32, i16, i8, i8, i8, i8, i8, i8, i8 }
%struct.HashAggSpill = type { i32, ptr, ptr, i32, i32, ptr }
%struct.hyperLogLogState = type { i8, i64, double, ptr, i64 }
%struct.MinimalTupleData = type { i32, [6 x i8], i16, i16, i8, [0 x i8] }

; Function Attrs: inlinehint nounwind uwtable
define internal ptr @ExecClearTuple(ptr noundef %0) #3 {
  %2 = alloca ptr, align 8
  store ptr %0, ptr %2, align 8
  %3 = load ptr, ptr %2, align 8
  %4 = getelementptr inbounds nuw %struct.TupleTableSlot, ptr %3, i32 0, i32 3
  %5 = load ptr, ptr %4, align 8
  %6 = getelementptr inbounds nuw %struct.TupleTableSlotOps, ptr %5, i32 0, i32 3
  %7 = load ptr, ptr %6, align 8
  %8 = load ptr, ptr %2, align 8
  call void %7(ptr noundef %8)
  %9 = load ptr, ptr %2, align 8
  ret ptr %9
}

; Function Attrs: inlinehint nounwind uwtable
define internal void @slot_getsomeattrs(ptr noundef %0, i32 noundef %1) #3 {
  %3 = alloca ptr, align 8
  %4 = alloca i32, align 4
  store ptr %0, ptr %3, align 8
  store i32 %1, ptr %4, align 4
  %5 = load ptr, ptr %3, align 8
  %6 = getelementptr inbounds nuw %struct.TupleTableSlot, ptr %5, i32 0, i32 2
  %7 = load i16, ptr %6, align 2
  %8 = sext i16 %7 to i32
  %9 = load i32, ptr %4, align 4
  %10 = icmp slt i32 %8, %9
  br i1 %10, label %11, label %14

11:                                               ; preds = %2
  %12 = load ptr, ptr %3, align 8
  %13 = load i32, ptr %4, align 4
  call void @slot_getsomeattrs_int(ptr noundef %12, i32 noundef %13)
  br label %14

14:                                               ; preds = %11, %2
  ret void
}

; Function Attrs: nounwind uwtable
define internal i64 @hashagg_spill_tuple(ptr noundef %0, ptr noundef %1, ptr noundef %2, i32 noundef %3) #0 {
  %5 = alloca ptr, align 8
  %6 = alloca ptr, align 8
  %7 = alloca ptr, align 8
  %8 = alloca i32, align 4
  %9 = alloca ptr, align 8
  %10 = alloca i32, align 4
  %11 = alloca ptr, align 8
  %12 = alloca ptr, align 8
  %13 = alloca i32, align 4
  %14 = alloca i8, align 1
  %15 = alloca i32, align 4
  store ptr %0, ptr %5, align 8
  store ptr %1, ptr %6, align 8
  store ptr %2, ptr %7, align 8
  store i32 %3, ptr %8, align 4
  call void @llvm.lifetime.start.p0(i64 8, ptr %9) #9
  call void @llvm.lifetime.start.p0(i64 4, ptr %10) #9
  call void @llvm.lifetime.start.p0(i64 8, ptr %11) #9
  call void @llvm.lifetime.start.p0(i64 8, ptr %12) #9
  call void @llvm.lifetime.start.p0(i64 4, ptr %13) #9
  store i32 0, ptr %13, align 4
  call void @llvm.lifetime.start.p0(i64 1, ptr %14) #9
  %16 = load ptr, ptr %5, align 8
  %17 = getelementptr inbounds nuw %struct.AggState, ptr %16, i32 0, i32 25
  %18 = load i8, ptr %17, align 4, !range !4, !noundef !5
  %19 = trunc i8 %18 to i1
  br i1 %19, label %89, label %20

20:                                               ; preds = %4
  %21 = load ptr, ptr %5, align 8
  %22 = getelementptr inbounds nuw %struct.AggState, ptr %21, i32 0, i32 39
  %23 = load ptr, ptr %22, align 8
  store ptr %23, ptr %9, align 8
  %24 = load ptr, ptr %7, align 8
  %25 = load ptr, ptr %5, align 8
  %26 = getelementptr inbounds nuw %struct.AggState, ptr %25, i32 0, i32 24
  %27 = load i32, ptr %26, align 8
  call void @slot_getsomeattrs(ptr noundef %24, i32 noundef %27)
  %28 = load ptr, ptr %9, align 8
  %29 = call ptr @ExecClearTuple(ptr noundef %28)
  call void @llvm.lifetime.start.p0(i64 4, ptr %15) #9
  store i32 0, ptr %15, align 4
  br label %30

30:                                               ; preds = %83, %20
  %31 = load i32, ptr %15, align 4
  %32 = load ptr, ptr %9, align 8
  %33 = getelementptr inbounds nuw %struct.TupleTableSlot, ptr %32, i32 0, i32 4
  %34 = load ptr, ptr %33, align 8
  %35 = getelementptr inbounds nuw %struct.TupleDescData, ptr %34, i32 0, i32 0
  %36 = load i32, ptr %35, align 8
  %37 = icmp slt i32 %31, %36
  br i1 %37, label %39, label %38

38:                                               ; preds = %30
  call void @llvm.lifetime.end.p0(i64 4, ptr %15) #9
  br label %86

39:                                               ; preds = %30
  %40 = load i32, ptr %15, align 4
  %41 = add i32 %40, 1
  %42 = load ptr, ptr %5, align 8
  %43 = getelementptr inbounds nuw %struct.AggState, ptr %42, i32 0, i32 23
  %44 = load ptr, ptr %43, align 8
  %45 = call zeroext i1 @bms_is_member(i32 noundef %41, ptr noundef %44)
  br i1 %45, label %46, label %75

46:                                               ; preds = %39
  %47 = load ptr, ptr %7, align 8
  %48 = getelementptr inbounds nuw %struct.TupleTableSlot, ptr %47, i32 0, i32 5
  %49 = load ptr, ptr %48, align 8
  %50 = load i32, ptr %15, align 4
  %51 = sext i32 %50 to i64
  %52 = getelementptr inbounds i64, ptr %49, i64 %51
  %53 = load i64, ptr %52, align 8
  %54 = load ptr, ptr %9, align 8
  %55 = getelementptr inbounds nuw %struct.TupleTableSlot, ptr %54, i32 0, i32 5
  %56 = load ptr, ptr %55, align 8
  %57 = load i32, ptr %15, align 4
  %58 = sext i32 %57 to i64
  %59 = getelementptr inbounds i64, ptr %56, i64 %58
  store i64 %53, ptr %59, align 8
  %60 = load ptr, ptr %7, align 8
  %61 = getelementptr inbounds nuw %struct.TupleTableSlot, ptr %60, i32 0, i32 6
  %62 = load ptr, ptr %61, align 8
  %63 = load i32, ptr %15, align 4
  %64 = sext i32 %63 to i64
  %65 = getelementptr inbounds i8, ptr %62, i64 %64
  %66 = load i8, ptr %65, align 1, !range !4, !noundef !5
  %67 = trunc i8 %66 to i1
  %68 = load ptr, ptr %9, align 8
  %69 = getelementptr inbounds nuw %struct.TupleTableSlot, ptr %68, i32 0, i32 6
  %70 = load ptr, ptr %69, align 8
  %71 = load i32, ptr %15, align 4
  %72 = sext i32 %71 to i64
  %73 = getelementptr inbounds i8, ptr %70, i64 %72
  %74 = zext i1 %67 to i8
  store i8 %74, ptr %73, align 1
  br label %82

75:                                               ; preds = %39
  %76 = load ptr, ptr %9, align 8
  %77 = getelementptr inbounds nuw %struct.TupleTableSlot, ptr %76, i32 0, i32 6
  %78 = load ptr, ptr %77, align 8
  %79 = load i32, ptr %15, align 4
  %80 = sext i32 %79 to i64
  %81 = getelementptr inbounds i8, ptr %78, i64 %80
  store i8 1, ptr %81, align 1
  br label %82

82:                                               ; preds = %75, %46
  br label %83

83:                                               ; preds = %82
  %84 = load i32, ptr %15, align 4
  %85 = add i32 %84, 1
  store i32 %85, ptr %15, align 4
  br label %30, !llvm.loop !51

86:                                               ; preds = %38
  %87 = load ptr, ptr %9, align 8
  %88 = call ptr @ExecStoreVirtualTuple(ptr noundef %87)
  br label %91

89:                                               ; preds = %4
  %90 = load ptr, ptr %7, align 8
  store ptr %90, ptr %9, align 8
  br label %91

91:                                               ; preds = %89, %86
  %92 = load ptr, ptr %9, align 8
  %93 = call ptr @ExecFetchSlotMinimalTuple(ptr noundef %92, ptr noundef %14)
  store ptr %93, ptr %11, align 8
  %94 = load ptr, ptr %6, align 8
  %95 = getelementptr inbounds nuw %struct.HashAggSpill, ptr %94, i32 0, i32 4
  %96 = load i32, ptr %95, align 4
  %97 = icmp slt i32 %96, 32
  br i1 %97, label %98, label %108

98:                                               ; preds = %91
  %99 = load i32, ptr %8, align 4
  %100 = load ptr, ptr %6, align 8
  %101 = getelementptr inbounds nuw %struct.HashAggSpill, ptr %100, i32 0, i32 3
  %102 = load i32, ptr %101, align 8
  %103 = and i32 %99, %102
  %104 = load ptr, ptr %6, align 8
  %105 = getelementptr inbounds nuw %struct.HashAggSpill, ptr %104, i32 0, i32 4
  %106 = load i32, ptr %105, align 4
  %107 = lshr i32 %103, %106
  store i32 %107, ptr %10, align 4
  br label %109

108:                                              ; preds = %91
  store i32 0, ptr %10, align 4
  br label %109

109:                                              ; preds = %108, %98
  %110 = load ptr, ptr %6, align 8
  %111 = getelementptr inbounds nuw %struct.HashAggSpill, ptr %110, i32 0, i32 2
  %112 = load ptr, ptr %111, align 8
  %113 = load i32, ptr %10, align 4
  %114 = sext i32 %113 to i64
  %115 = getelementptr inbounds i64, ptr %112, i64 %114
  %116 = load i64, ptr %115, align 8
  %117 = add i64 %116, 1
  store i64 %117, ptr %115, align 8
  %118 = load ptr, ptr %6, align 8
  %119 = getelementptr inbounds nuw %struct.HashAggSpill, ptr %118, i32 0, i32 5
  %120 = load ptr, ptr %119, align 8
  %121 = load i32, ptr %10, align 4
  %122 = sext i32 %121 to i64
  %123 = getelementptr inbounds %struct.hyperLogLogState, ptr %120, i64 %122
  %124 = load i32, ptr %8, align 4
  %125 = call i32 @hash_bytes_uint32(i32 noundef %124)
  call void @addHyperLogLog(ptr noundef %123, i32 noundef %125)
  %126 = load ptr, ptr %6, align 8
  %127 = getelementptr inbounds nuw %struct.HashAggSpill, ptr %126, i32 0, i32 1
  %128 = load ptr, ptr %127, align 8
  %129 = load i32, ptr %10, align 4
  %130 = sext i32 %129 to i64
  %131 = getelementptr inbounds ptr, ptr %128, i64 %130
  %132 = load ptr, ptr %131, align 8
  store ptr %132, ptr %12, align 8
  %133 = load ptr, ptr %12, align 8
  call void @LogicalTapeWrite(ptr noundef %133, ptr noundef %8, i64 noundef 4)
  %134 = load i32, ptr %13, align 4
  %135 = sext i32 %134 to i64
  %136 = add i64 %135, 4
  %137 = trunc i64 %136 to i32
  store i32 %137, ptr %13, align 4
  %138 = load ptr, ptr %12, align 8
  %139 = load ptr, ptr %11, align 8
  %140 = load ptr, ptr %11, align 8
  %141 = getelementptr inbounds nuw %struct.MinimalTupleData, ptr %140, i32 0, i32 0
  %142 = load i32, ptr %141, align 4
  %143 = zext i32 %142 to i64
  call void @LogicalTapeWrite(ptr noundef %138, ptr noundef %139, i64 noundef %143)
  %144 = load ptr, ptr %11, align 8
  %145 = getelementptr inbounds nuw %struct.MinimalTupleData, ptr %144, i32 0, i32 0
  %146 = load i32, ptr %145, align 4
  %147 = load i32, ptr %13, align 4
  %148 = add i32 %147, %146
  store i32 %148, ptr %13, align 4
  %149 = load i8, ptr %14, align 1, !range !4, !noundef !5
  %150 = trunc i8 %149 to i1
  br i1 %150, label %151, label %153

151:                                              ; preds = %109
  %152 = load ptr, ptr %11, align 8
  call void @pfree(ptr noundef %152)
  br label %153

153:                                              ; preds = %151, %109
  %154 = load i32, ptr %13, align 4
  %155 = sext i32 %154 to i64
  call void @llvm.lifetime.end.p0(i64 1, ptr %14) #9
  call void @llvm.lifetime.end.p0(i64 4, ptr %13) #9
  call void @llvm.lifetime.end.p0(i64 8, ptr %12) #9
  call void @llvm.lifetime.end.p0(i64 8, ptr %11) #9
  call void @llvm.lifetime.end.p0(i64 4, ptr %10) #9
  call void @llvm.lifetime.end.p0(i64 8, ptr %9) #9
  ret i64 %155
}