; Function Attrs: nounwind uwtable
define internal fastcc void @hashagg_spill_tuple(ptr noundef readonly captures(none) %0, ptr noundef readonly captures(none) %1, ptr noundef %2, i32 noundef %3) unnamed_addr #2 {
  %5 = alloca i32, align 4
  %6 = alloca i8, align 1
  store i32 %3, ptr %5, align 4
  call void @llvm.lifetime.start.p0(i64 1, ptr nonnull %6) #12
  %7 = getelementptr inbounds nuw i8, ptr %0, i64 372
  %8 = load i8, ptr %7, align 4, !range !6, !noundef !7
  %9 = trunc nuw i8 %8 to i1
  br i1 %9, label %54, label %10

10:                                               ; preds = %4
  %11 = getelementptr inbounds nuw i8, ptr %0, i64 472
  %12 = load ptr, ptr %11, align 8
  %13 = getelementptr inbounds nuw i8, ptr %0, i64 368
  %14 = load i32, ptr %13, align 8
  %15 = getelementptr inbounds nuw i8, ptr %2, i64 6
  %16 = load i16, ptr %15, align 2
  %17 = sext i16 %16 to i32
  %18 = icmp sgt i32 %14, %17
  br i1 %18, label %19, label %slot_getsomeattrs.exit

19:                                               ; preds = %10
  tail call void @slot_getsomeattrs_int(ptr noundef nonnull %2, i32 noundef %14) #12
  br label %slot_getsomeattrs.exit

slot_getsomeattrs.exit:                           ; preds = %10, %19
  %20 = getelementptr inbounds nuw i8, ptr %12, i64 8
  %21 = load ptr, ptr %20, align 8
  %22 = getelementptr inbounds nuw i8, ptr %21, i64 24
  %23 = load ptr, ptr %22, align 8
  tail call void %23(ptr noundef %12) #12
  %24 = getelementptr inbounds nuw i8, ptr %12, i64 16
  %25 = load ptr, ptr %24, align 8
  %26 = load i32, ptr %25, align 8
  %27 = icmp sgt i32 %26, 0
  br i1 %27, label %.lr.ph, label %._crit_edge

.lr.ph:                                           ; preds = %slot_getsomeattrs.exit
  %28 = getelementptr inbounds nuw i8, ptr %0, i64 360
  %29 = getelementptr inbounds nuw i8, ptr %12, i64 32
  %30 = getelementptr inbounds nuw i8, ptr %2, i64 24
  %31 = getelementptr inbounds nuw i8, ptr %12, i64 24
  %32 = getelementptr inbounds nuw i8, ptr %2, i64 32
  br label %34

._crit_edge:                                      ; preds = %47, %slot_getsomeattrs.exit
  %33 = tail call ptr @ExecStoreVirtualTuple(ptr noundef nonnull %12) #12
  br label %54

34:                                               ; preds = %.lr.ph, %47
  %indvars.iv = phi i64 [ 0, %.lr.ph ], [ %indvars.iv.next, %47 ]
  %indvars.iv.next = add nuw nsw i64 %indvars.iv, 1
  %35 = load ptr, ptr %28, align 8
  %36 = trunc nuw nsw i64 %indvars.iv.next to i32
  %37 = tail call zeroext i1 @bms_is_member(i32 noundef %36, ptr noundef %35) #12
  br i1 %37, label %38, label %47

38:                                               ; preds = %34
  %39 = load ptr, ptr %30, align 8
  %40 = getelementptr inbounds nuw i64, ptr %39, i64 %indvars.iv
  %41 = load i64, ptr %40, align 8
  %42 = load ptr, ptr %31, align 8
  %43 = getelementptr inbounds nuw i64, ptr %42, i64 %indvars.iv
  store i64 %41, ptr %43, align 8
  %44 = load ptr, ptr %32, align 8
  %45 = getelementptr inbounds nuw i8, ptr %44, i64 %indvars.iv
  %46 = load i8, ptr %45, align 1, !range !6, !noundef !7
  br label %47

47:                                               ; preds = %34, %38
  %.sink = phi i8 [ %46, %38 ], [ 1, %34 ]
  %48 = load ptr, ptr %29, align 8
  %49 = getelementptr inbounds nuw i8, ptr %48, i64 %indvars.iv
  store i8 %.sink, ptr %49, align 1
  %50 = load ptr, ptr %24, align 8
  %51 = load i32, ptr %50, align 8
  %52 = sext i32 %51 to i64
  %53 = icmp slt i64 %indvars.iv.next, %52
  br i1 %53, label %34, label %._crit_edge, !llvm.loop !48

54:                                               ; preds = %4, %._crit_edge
  %.040 = phi ptr [ %12, %._crit_edge ], [ %2, %4 ]
  %55 = call ptr @ExecFetchSlotMinimalTuple(ptr noundef %.040, ptr noundef nonnull %6) #12
  %56 = getelementptr inbounds nuw i8, ptr %1, i64 28
  %57 = load i32, ptr %56, align 4
  %58 = icmp slt i32 %57, 32
  br i1 %58, label %59, label %65

59:                                               ; preds = %54
  %60 = getelementptr inbounds nuw i8, ptr %1, i64 24
  %61 = load i32, ptr %60, align 8
  %62 = and i32 %61, %3
  %63 = lshr i32 %62, %57
  %64 = sext i32 %63 to i64
  br label %65

65:                                               ; preds = %54, %59
  %.041 = phi i64 [ %64, %59 ], [ 0, %54 ]
  %66 = getelementptr inbounds nuw i8, ptr %1, i64 16
  %67 = load ptr, ptr %66, align 8
  %68 = getelementptr inbounds i64, ptr %67, i64 %.041
  %69 = load i64, ptr %68, align 8
  %70 = add i64 %69, 1
  store i64 %70, ptr %68, align 8
  %71 = getelementptr inbounds nuw i8, ptr %1, i64 32
  %72 = load ptr, ptr %71, align 8
  %73 = getelementptr inbounds %struct.hyperLogLogState, ptr %72, i64 %.041
  %74 = call i32 @hash_bytes_uint32(i32 noundef %3) #12
  call void @addHyperLogLog(ptr noundef %73, i32 noundef %74) #12
  %75 = getelementptr inbounds nuw i8, ptr %1, i64 8
  %76 = load ptr, ptr %75, align 8
  %77 = getelementptr inbounds ptr, ptr %76, i64 %.041
  %78 = load ptr, ptr %77, align 8
  call void @LogicalTapeWrite(ptr noundef %78, ptr noundef nonnull %5, i64 noundef 4) #12
  %79 = load i32, ptr %55, align 4
  %80 = zext i32 %79 to i64
  call void @LogicalTapeWrite(ptr noundef %78, ptr noundef nonnull %55, i64 noundef %80) #12
  %81 = load i8, ptr %6, align 1, !range !6, !noundef !7
  %82 = trunc nuw i8 %81 to i1
  br i1 %82, label %83, label %84

83:                                               ; preds = %65
  call void @pfree(ptr noundef nonnull %55) #12
  br label %84

84:                                               ; preds = %83, %65
  call void @llvm.lifetime.end.p0(i64 1, ptr nonnull %6) #12
  ret void
}